target datalayout = "e-m:e-p270:32:32-p271:32:32-p272:64:64-i64:64-i128:128-f80:128-n8:16:32:64-S128"
target triple = "x86_64-pc-linux-gnu"

%struct._packet_info = type { ptr, ptr, i32, i32, %struct.nstime_t, %struct.nstime_t, %struct.nstime_t, i8, ptr, ptr, ptr, ptr, %struct._address, %struct._address, %struct._address, %struct._address, %struct._address, %struct._address, i32, ptr, i8, [3 x i8], %struct.anon, i32, i32, i32, i32, ptr, i8, ptr, ptr, i16, i16, i32, i32, i16, i32, i32, ptr, ptr, ptr, i8, i8, i16, i16, i16, i32, i16, i16, ptr, ptr, ptr, ptr, ptr, i32, i32 }
%struct.nstime_t = type { i64, i32 }
%struct._address = type { i32, i32, ptr, ptr }
%struct.anon = type { i8, [3 x i8] }

@.str.615 = private unnamed_addr constant [19 x i8] c"Unescaped RSP Data\00", align 1

; Function Attrs: null_pointer_is_valid sspstrong uwtable
define internal ptr @dissect_h265_unescap_nal_unit(ptr noundef %0, ptr noundef %1, i32 noundef %2) #0 {
  %4 = alloca ptr, align 8
  %5 = alloca ptr, align 8
  %6 = alloca i32, align 4
  %7 = alloca ptr, align 8
  %8 = alloca i32, align 4
  %9 = alloca i32, align 4
  %10 = alloca i32, align 4
  %11 = alloca ptr, align 8
  store ptr %0, ptr %4, align 8
  store ptr %1, ptr %5, align 8
  store i32 %2, ptr %6, align 4
  call void @llvm.lifetime.start.p0(i64 8, ptr %7) #7
  call void @llvm.lifetime.start.p0(i64 4, ptr %8) #7
  %12 = load ptr, ptr %4, align 8
  %13 = load i32, ptr %6, align 4
  %14 = call i32 @tvb_reported_length_remaining(ptr noundef %12, i32 noundef %13)
  store i32 %14, ptr %8, align 4
  call void @llvm.lifetime.start.p0(i64 4, ptr %9) #7
  store i32 0, ptr %9, align 4
  call void @llvm.lifetime.start.p0(i64 4, ptr %10) #7
  call void @llvm.lifetime.start.p0(i64 8, ptr %11) #7
  %15 = load ptr, ptr %5, align 8
  %16 = getelementptr inbounds nuw %struct._packet_info, ptr %15, i32 0, i32 51
  %17 = load ptr, ptr %16, align 8
  %18 = load i32, ptr %8, align 4
  %19 = sext i32 %18 to i64
  %20 = call noalias ptr @wmem_alloc(ptr noundef %17, i64 noundef %19) #9
  store ptr %20, ptr %11, align 8
  store i32 0, ptr %10, align 4
  br label %21

21:                                               ; preds = %69, %3
  %22 = load i32, ptr %10, align 4
  %23 = load i32, ptr %8, align 4
  %24 = icmp slt i32 %22, %23
  br i1 %24, label %25, label %72

25:                                               ; preds = %21
  %26 = load i32, ptr %10, align 4
  %27 = add i32 %26, 2
  %28 = load i32, ptr %8, align 4
  %29 = icmp slt i32 %27, %28
  br i1 %29, label %30, label %57

30:                                               ; preds = %25
  %31 = load ptr, ptr %4, align 8
  %32 = load i32, ptr %6, align 4
  %33 = call i32 @tvb_get_ntoh24(ptr noundef %31, i32 noundef %32)
  %34 = icmp eq i32 %33, 3
  br i1 %34, label %35, label %57

35:                                               ; preds = %30
  %36 = load ptr, ptr %4, align 8
  %37 = load i32, ptr %6, align 4
  %38 = call zeroext i8 @tvb_get_uint8(ptr noundef %36, i32 noundef %37)
  %39 = load ptr, ptr %11, align 8
  %40 = load i32, ptr %9, align 4
  %41 = add i32 %40, 1
  store i32 %41, ptr %9, align 4
  %42 = sext i32 %40 to i64
  %43 = getelementptr i8, ptr %39, i64 %42
  store i8 %38, ptr %43, align 1
  %44 = load ptr, ptr %4, align 8
  %45 = load i32, ptr %6, align 4
  %46 = add i32 %45, 1
  %47 = call zeroext i8 @tvb_get_uint8(ptr noundef %44, i32 noundef %46)
  %48 = load ptr, ptr %11, align 8
  %49 = load i32, ptr %9, align 4
  %50 = add i32 %49, 1
  store i32 %50, ptr %9, align 4
  %51 = sext i32 %49 to i64
  %52 = getelementptr i8, ptr %48, i64 %51
  store i8 %47, ptr %52, align 1
  %53 = load i32, ptr %10, align 4
  %54 = add i32 %53, 2
  store i32 %54, ptr %10, align 4
  %55 = load i32, ptr %6, align 4
  %56 = add i32 %55, 3
  store i32 %56, ptr %6, align 4
  br label %68

57:                                               ; preds = %30, %25
  %58 = load ptr, ptr %4, align 8
  %59 = load i32, ptr %6, align 4
  %60 = call zeroext i8 @tvb_get_uint8(ptr noundef %58, i32 noundef %59)
  %61 = load ptr, ptr %11, align 8
  %62 = load i32, ptr %9, align 4
  %63 = add i32 %62, 1
  store i32 %63, ptr %9, align 4
  %64 = sext i32 %62 to i64
  %65 = getelementptr i8, ptr %61, i64 %64
  store i8 %60, ptr %65, align 1
  %66 = load i32, ptr %6, align 4
  %67 = add i32 %66, 1
  store i32 %67, ptr %6, align 4
  br label %68

68:                                               ; preds = %57, %35
  br label %69

69:                                               ; preds = %68
  %70 = load i32, ptr %10, align 4
  %71 = add i32 %70, 1
  store i32 %71, ptr %10, align 4
  br label %21, !llvm.loop !28

72:                                               ; preds = %21
  %73 = load ptr, ptr %4, align 8
  %74 = load ptr, ptr %11, align 8
  %75 = load i32, ptr %9, align 4
  %76 = load i32, ptr %9, align 4
  %77 = call ptr @tvb_new_child_real_data(ptr noundef %73, ptr noundef %74, i32 noundef %75, i32 noundef %76)
  store ptr %77, ptr %7, align 8
  %78 = load ptr, ptr %5, align 8
  %79 = load ptr, ptr %7, align 8
  call void @add_new_data_source(ptr noundef %78, ptr noundef %79, ptr noundef @.str.615)
  %80 = load ptr, ptr %7, align 8
  call void @llvm.lifetime.end.p0(i64 8, ptr %11) #7
  call void @llvm.lifetime.end.p0(i64 4, ptr %10) #7
  call void @llvm.lifetime.end.p0(i64 4, ptr %9) #7
  call void @llvm.lifetime.end.p0(i64 4, ptr %8) #7
  call void @llvm.lifetime.end.p0(i64 8, ptr %7) #7
  ret ptr %80
}