; Function Attrs: null_pointer_is_valid sspstrong uwtable
define internal fastcc noundef ptr @dissect_h265_unescap_nal_unit(ptr noundef %0, ptr noundef %1, i32 noundef range(i32 0, 3) %2) unnamed_addr #0 {
  %4 = tail call i32 @tvb_reported_length_remaining(ptr noundef %0, i32 noundef %2)
  %5 = getelementptr inbounds nuw i8, ptr %1, i64 408
  %6 = load ptr, ptr %5, align 8
  %7 = sext i32 %4 to i64
  %8 = tail call noalias ptr @wmem_alloc(ptr noundef %6, i64 noundef %7) #10
  %9 = icmp sgt i32 %4, 0
  br i1 %9, label %.lr.ph, label %._crit_edge

.lr.ph:                                           ; preds = %3, %21
  %.040 = phi i32 [ %26, %21 ], [ %2, %3 ]
  %.03239 = phi i32 [ %27, %21 ], [ 0, %3 ]
  %.03438 = phi i32 [ %23, %21 ], [ 0, %3 ]
  %10 = add i32 %.03239, 2
  %11 = icmp slt i32 %10, %4
  br i1 %11, label %12, label %21

12:                                               ; preds = %.lr.ph
  %13 = tail call i32 @tvb_get_ntoh24(ptr noundef %0, i32 noundef %.040)
  %14 = icmp eq i32 %13, 3
  br i1 %14, label %15, label %21

15:                                               ; preds = %12
  %16 = tail call zeroext i8 @tvb_get_uint8(ptr noundef %0, i32 noundef %.040)
  %17 = add i32 %.03438, 1
  %18 = sext i32 %.03438 to i64
  %19 = getelementptr i8, ptr %8, i64 %18
  store i8 %16, ptr %19, align 1
  %20 = add i32 %.040, 1
  br label %21

21:                                               ; preds = %.lr.ph, %12, %15
  %.sink46 = phi i32 [ %20, %15 ], [ %.040, %12 ], [ %.040, %.lr.ph ]
  %.sink45 = phi i32 [ 2, %15 ], [ 1, %12 ], [ 1, %.lr.ph ]
  %.sink44 = phi i32 [ %17, %15 ], [ %.03438, %12 ], [ %.03438, %.lr.ph ]
  %.sink = phi i32 [ 3, %15 ], [ 1, %12 ], [ 1, %.lr.ph ]
  %.133 = phi i32 [ %10, %15 ], [ %.03239, %12 ], [ %.03239, %.lr.ph ]
  %22 = tail call zeroext i8 @tvb_get_uint8(ptr noundef %0, i32 noundef %.sink46)
  %23 = add i32 %.03438, %.sink45
  %24 = sext i32 %.sink44 to i64
  %25 = getelementptr i8, ptr %8, i64 %24
  store i8 %22, ptr %25, align 1
  %26 = add i32 %.040, %.sink
  %27 = add i32 %.133, 1
  %28 = icmp slt i32 %27, %4
  br i1 %28, label %.lr.ph, label %._crit_edge, !llvm.loop !30

._crit_edge:                                      ; preds = %21, %3
  %.034.lcssa = phi i32 [ 0, %3 ], [ %23, %21 ]
  %29 = tail call ptr @tvb_new_child_real_data(ptr noundef %0, ptr noundef %8, i32 noundef %.034.lcssa, i32 noundef %.034.lcssa)
  tail call void @add_new_data_source(ptr noundef %1, ptr noundef %29, ptr noundef nonnull @.str.615)
  ret ptr %29
}